; Function Attrs: null_pointer_is_valid sspstrong uwtable
define internal noundef zeroext i1 @dissect_bia_parameter(ptr noundef %0, ptr noundef %1, ptr noundef %2, i32 noundef %3, i32 noundef %4, i16 noundef zeroext %5, ptr noundef readonly captures(none) %6, i32 noundef %7, i32 noundef %8, ptr readnone captures(none) %9) #0 {
  %11 = icmp eq i32 %4, 2
  %12 = icmp eq i16 %5, 61
  %or.cond.not19.not22 = and i1 %11, %12
  %13 = icmp ult i32 %7, 20
  %or.cond17.not = and i1 %or.cond.not19.not22, %13
  br i1 %or.cond17.not, label %14, label %32

14:                                               ; preds = %10
  %15 = tail call ptr @wmem_packet_scope()
  %16 = add i32 %8, 1
  %17 = sext i32 %16 to i64
  %18 = tail call noalias ptr @wmem_alloc(ptr noundef %15, i64 noundef %17) #11
  %19 = sext i32 %8 to i64
  %20 = icmp ne i32 %16, -1
  tail call void @llvm.assume(i1 %20)
  %21 = tail call ptr @__memcpy_chk(ptr noundef %18, ptr noundef readonly %6, i64 noundef range(i64 -2147483648, 4294967296) %19, i64 noundef %17) #10, !alias.scope !105
  %22 = getelementptr i8, ptr %18, i64 %19
  store i8 0, ptr %22, align 1
  %23 = tail call i64 @g_ascii_strtoull(ptr noundef %18, ptr noundef null, i32 noundef 10)
  %24 = trunc i64 %23 to i32
  %25 = zext nneg i32 %7 to i64
  %26 = getelementptr [20 x i32], ptr @hf_bia_indicator, i64 0, i64 %25
  %27 = load i32, ptr %26, align 4
  %28 = tail call ptr @proto_tree_add_uint(ptr noundef %2, i32 noundef %27, ptr noundef %0, i32 noundef %3, i32 noundef %8, i32 noundef %24)
  %29 = icmp ugt i32 %24, 1
  br i1 %29, label %30, label %32

30:                                               ; preds = %14
  %31 = tail call ptr @expert_add_info(ptr noundef %1, ptr noundef %28, ptr noundef nonnull @ei_bia)
  br label %32

32:                                               ; preds = %14, %30, %10
  ret i1 %or.cond17.not
}